; Function Attrs: mustprogress uwtable
define internal void @_ZN9grpc_core12_GLOBAL__N_124GoogleCloud2ProdResolver25RequestReresolutionLockedEv(ptr nocapture noundef nonnull readonly align 8 dereferenceable(170) %this) unnamed_addr #3 align 2 {
entry:
  %child_resolver_ = getelementptr inbounds i8, ptr %this, i64 64
  %0 = load ptr, ptr %child_resolver_, align 8
  %cmp.i.i.not = icmp eq ptr %0, null
  br i1 %cmp.i.i.not, label %if.end, label %if.then

if.then:                                          ; preds = %entry
  %vtable = load ptr, ptr %0, align 8
  %vfn = getelementptr inbounds i8, ptr %vtable, i64 32
  %1 = load ptr, ptr %vfn, align 8
  tail call void %1(ptr noundef nonnull align 8 dereferenceable(16) %0)
  br label %if.end

if.end:                                           ; preds = %if.then, %entry
  ret void
}